(dp0
S'safe_distance'
p1
F12.0
sS'target_speed'
p2
F28.0
sS'poly_param'
p3
(dp4
S'param_lon'
p5
(lp6
F0.0
aF0.0
aF0.0
aF0.0
aF5.555555555555555
aF0.0
asS'dt'
p7
F4.0
sS'param_lat'
p8
(lp9
F-0.0205
aF0.2051
aF-0.5469
aF0.0
aF0.0
aF0.0
ass.